ASxxxx Linker V03.00 + NoICE + sdld,  page 1.
Hexadecimal  [32-Bits]

Area                                    Addr        Size        Decimal Bytes (Attributes)
--------------------------------        ----        ----        ------- ----- ------------
.  .ABS.                            00000000    00000000 =           0. bytes (ABS,CON)

      Value  Global                              Global Defined In Module
      -----  --------------------------------   ------------------------
     00000000  .__.ABS.                           
     00000000  .__.CPU.                           
     00000000  .__.H$L.                           
     00000000  BG_BLACK                           
     00000000  COUNTRY_INTERNATIONAL              
     00000000  CRT_RESET                          
     00000000  ESC_0C_SCROLL_MODE                 
     00000000  HIGH_ZERO                          
     00000000  KBD_MOD_SHIFT                      
     00000000  OFF                                
     00000000  REG_0                              
     00000000  STATUS_SLED                        
     00000000  _CRT80                             
     00000000  _FDD_PRESENT                       
     00000000  _SIOC                              
     00000000  cold_start                         
     00000001  CEN_RESET                          
     00000001  COUNTRY_DE                         
     00000001  MASK_ESC_0C_SCROLL_MODE            
     00000001  MODIFIER_SHIFT                     
     00000001  ON                                 
     00000001  TOGGLE_SLED                        
     00000001  _CRT_VSYNC_PERIOD                  
     00000001  _DISPLAY_INHIBIT                   
     00000001  _GFX_AVAILABLE                     
     00000002  CEN_STROBE                         
     00000002  CMT_RS232_SELECT                   
     00000002  COUNTRY_US                         
     00000002  ESC_0C_CTRL_INTERNAL               
     00000002  KBD_MOD_CTRL                       
     00000002  STATUS_GLED                        
     00000002  _CEN_ACKNOWLEDGE                   
     00000003  BICOM_GFX                          
     00000003  CMT_MOTOR_START                    
     00000003  COUNTRY_FR                         
     00000003  ESC_0C_COMMAND_KEY                 
     00000003  MONINH                             
     00000003  _CEN_BUSY                          
     00000004  COUNTRY_UK                         
     00000004  GLED                               
     00000004  TOGGLE_GLED                        
     00000004  _BUZZER_ON                         
     00000005  COUNTRY_IT                         
     00000005  MUST_BE_ZERO                       
     00000005  SLED                               
     00000005  _PRT_SERIAL                        
     00000005  fdc_cmd_init_size                  
     00000006  ATTR_BLINK                         
     00000006  COUNTRY_ES                         
     00000006  DIO_Data_input_output              
ASxxxx Linker V03.00 + NoICE + sdld,  page 2.
Hexadecimal  [32-Bits]

Area                                    Addr        Size        Decimal Bytes (Attributes)
--------------------------------        ----        ----        ------- ----- ------------
.  .ABS.                            00000000    00000000 =           0. bytes (ABS,CON)

      Value  Global                              Global Defined In Module
      -----  --------------------------------   ------------------------
     00000006  ESC_0C_FB_SAME_COLOR               
     00000006  ROM_PACK_EN                        
     00000006  UPPER_MONITOR_SEL                  
     00000006  _CRT_NTSC                          
     00000007  ATTR_INVERS                        
     00000007  COUNTRY_07                         
     00000007  ESC_0C_CLS                         
     00000007  FG_WHITE                           
     00000007  KBD_BREAK                          
     00000007  MASK_COUNTRY_BITS                  
     00000007  ROM_ACCESS_EN                      
     00000007  RQM_Request_for_master             
     00000007  _CRT_DISPLAY                       
     00000008  FDC_CMD_SENSE_INTERRUPT_STATE      
     00000008  cpm_special_character_mods_size    
     00000008  id_basic                           
     00000009  fdc_cmd_read_boot_size             
     0000000A  REG_10_CURSOR_START                
     0000000A  VK_NL                              
     0000000A  str_error_size                     
     0000000A  str_ready_size                     
     0000000C  KBD_COLUMNS                        
     0000000C  kbd_matrix_buffer2_size            
     0000000C  kbd_matrix_buffer_size             
     0000000D  VK_ENTER                           
     0000000D  str_break_at_size                  
     0000000D  str_print_on_size                  
     0000000E  REG_14_CURSOR_H                    
     0000000E  str_print_off_size                 
     0000000F  REG_14_CURSOR_L                    
     00000010  CFG10                              
     00000010  STATUS10                           
     00000010  bicom_glp1_prt_gfx_size            
     00000010  bicom_glp2_prt_2nd_line_size       
     00000010  bicom_glp3_prt_crlf_size           
     00000010  bicom_glp4_prt_ld_size             
     00000010  bicom_glp5_prt_ld_size             
     00000010  crt_table40_size                   
     00000010  crt_table80_size                   
     00000010  sprintf_buffer_size                
     00000010  version_size                       
     00000016  ID_IS_BOOT                         
     00000018  MASK_WIDTH_40_80                   
     00000018  SCREEN_HEIGHT                      
     00000018  kbc_cpm_control_keys_shift_size    
     00000018  kbc_cpm_control_keys_size          
     00000018  str_monitor_size                   
     0000001B  VK_ESC                             
     0000001C  MASK_COUNTRY_SELECT                
     0000001C  VK_RIGHT                           
     0000001D  VK_LEFT                            
ASxxxx Linker V03.00 + NoICE + sdld,  page 3.
Hexadecimal  [32-Bits]

Area                                    Addr        Size        Decimal Bytes (Attributes)
--------------------------------        ----        ----        ------- ----- ------------
.  .ABS.                            00000000    00000000 =           0. bytes (ABS,CON)

      Value  Global                              Global Defined In Module
      -----  --------------------------------   ------------------------
     0000001E  VK_UP                              
     0000001F  MASK_CURSOR_LINE                   
     0000001F  VK_DOWN                            
     00000020  CFG20                              
     00000020  CURSOR_INVISIBLE                   
     00000020  STATUS_KBD                         
     00000024  crt_table_ntsc_size                
     0000002D  str_reg_size                       
     00000030  CEN_DATA                           
     00000030  ESC_53_CRT40                       
     00000030  STATUS30                           
     00000031  ESC_53_CRT80                       
     00000032  INPUT_MODE_32                      
     00000038  rst_38                             
     0000003B  basic_start                        
     00000040  CURSOR_BLINK_SLOW                  
     00000041  UART_CONTROL                       
     00000049  KBD_POSITION_LEFT                  
     0000004D  KBD_POSITION_COMMAND               
     0000004E  KBD_POSITION_SHIFT_LOCK            
     0000004F  KBD_POSITION_CTRL                  
     00000050  CRT_REG                            
     00000051  CRT_DATA                           
     00000053  KBD_POSITION_SHIFT                 
     00000056  KBD_POSITION_GRAPH                 
     0000005F  MASK_CAPITALIZE                    
     00000060  DMA                                
     00000060  kbd_table_int_sh_size              
     00000060  kbd_table_int_size                 
     00000068  DMA_MODE_SET                       
     00000070  PIC_ICW1                           
     00000071  PIC_ICW2                           
     00000071  PIC_OCW1                           
     0000007E  GERMAN_MAX_ASCII_CODE              
     0000007E  ID_IS_BASIC                        
     0000007F  VK_DEL                             
     00000080  INPUT_MODE_GRAPH                   
     000000B1  INPUT_MODE_B1                      
     000000C0  MASK_ATTR                          
     000000C0  kbd_table_de_size                  
     000000C0  kbd_table_es_size                  
     000000C0  kbd_table_fr_size                  
     000000C0  kbd_table_it_size                  
     000000C0  kbd_table_lookup_size              
     000000C0  kbd_table_uk_size                  
     000000C0  kbd_table_us_size                  
     000000C3  ID_JMP                             
     000000F0  FDC_UNIT                           
     000000F0  UPD765_STATE                       
     000000F8  UPD765_DATA                        
     000000F9  UPD765_MAIN_STATUS                 
ASxxxx Linker V03.00 + NoICE + sdld,  page 4.
Hexadecimal  [32-Bits]

Area                                    Addr        Size        Decimal Bytes (Attributes)
--------------------------------        ----        ----        ------- ----- ------------
.  .ABS.                            00000000    00000000 =           0. bytes (ABS,CON)

      Value  Global                              Global Defined In Module
      -----  --------------------------------   ------------------------
     00000108  BICOM_HEIGHT                       
     000003E8  DELAY_7MS                          
     000005DC  DELAY_11MS                         
     00000800  OFFSET_COLOR                       
     00000BB8  DELAY_22MS                         
     00002000  l__CODE                         
     00002710  .__.$$$.                           
     0000A000  ROM_PACK_16K                       
     0000C000  ROM_PACK_8K                        
     0000C200  boot_sector                        
     0000E000  s__CODE                         
     0000F000  BWS                                
     0000F000  stack_at_boot                      
     0000FFFF  MAX_ADDRESS                        

ASxxxx Linker V03.00 + NoICE + sdld,  page 5.
Hexadecimal  [32-Bits]

Area                                    Addr        Size        Decimal Bytes (Attributes)
--------------------------------        ----        ----        ------- ----- ------------
_CODE                               0000E000    00002000 =        8192. bytes (REL,CON)

      Value  Global                              Global Defined In Module
      -----  --------------------------------   ------------------------
     0000E000  boot_strap                         
     0000E039  _mf                                
     0000E044  ram_boot                           
     0000E055  rom_disable                        
     0000E060  go_monitor                         
     0000E070  monitor_cmd_loop                   
     0000E0AA  byte_change                        
     0000E0AD  _m11                               
     0000E0B8  _m10                               
     0000E0C0  _err3                              
     0000E0C9  test_decrement_key                 
     0000E0CF  monitor_cmd_mem_move               
     0000E121  ready_msg_after_ldir               
     0000E124  puts                               
     0000E12E  _continue_ldir                     
     0000E137  _err_area_overlap                  
     0000E13E  monitor_cmd_display                
     0000E15F  _display_line                      
     0000E16C  _display_byte                      
     0000E18C  monitor_cmd_go                     
     0000E1A6  op_return                          
     0000E1A7  rst38_vec                          
     0000E1AA  brk_handler                        
     0000E1DD  monitor_cmd_reg                    
     0000E1EE  _print_reg8                        
     0000E215  print_nl_hx16                      
     0000E218  _m12                               
     0000E21C  enable_protocol_printer            
     0000E227  _m13                               
     0000E22E  _print_on                          
     0000E235  return_to_basic                    
     0000E23D  just_go_back                       
     0000E242  prepare_basic                      
     0000E24C  display_ascii_dump                 
     0000E263  _m17                               
     0000E271  _m16                               
     0000E280  _m15                               
     0000E28B  non_char_printable                 
     0000E28D  _printable_char                    
     0000E29A  _sprintf_clean                     
     0000E29F  _m14                               
     0000E2A6  unreferenced_02                    
     0000E2AC  str_monitor                        
     0000E2C4  str_ready                          
     0000E2CE  str_error                          
     0000E2D8  str_print_off                      
     0000E2E6  str_print_on                       
     0000E2F3  str_break_at                       
     0000E300  str_reg                            
     0000E32D  outsphx8                           
ASxxxx Linker V03.00 + NoICE + sdld,  page 6.
Hexadecimal  [32-Bits]

Area                                    Addr        Size        Decimal Bytes (Attributes)
--------------------------------        ----        ----        ------- ----- ------------
_CODE                               0000E000    00002000 =        8192. bytes (REL,CON)

      Value  Global                              Global Defined In Module
      -----  --------------------------------   ------------------------
     0000E333  outhx16                            
     0000E338  outhx8                             
     0000E347  out_sphx8_minus                    
     0000E34E  outhx4                             
     0000E356  _me                                
     0000E357  _m18                               
     0000E35B  _correct_hex_digit                 
     0000E35F  print_new_line                     
     0000E369  print_space                        
     0000E36C  _print_next_char                   
     0000E371  put_char                           
     0000E37C  input_hex_byte                     
     0000E38E  get_char_echoed                    
     0000E398  get_hex_digit                      
     0000E3AF  _m1b                               
     0000E3B1  _m19                               
     0000E3B5  _m1a                               
     0000E3B7  get_hex_number_sp                  
     0000E3BA  get_hex_number                     
     0000E3C2  _m1c                               
     0000E3CF  _m1d                               
     0000E3D1  patch_os_functions                 
     0000E3DE  _md                                
     0000E3E7  restore_os_functions               
     0000E3FD  dev_fdd_wait_ready                 
     0000E400  dev_monitor                        
     0000E403  dev_serial_ready                   
     0000E406  dev_serial_read_byte               
     0000E40C  dev_kbd_status                     
     0000E40F  dev_kbd_inch                       
     0000E433  dev_serial_tx_ready                
     0000E436  dev_serial_write_byte              
     0000E439  dev_printer_write_byte             
     0000E43F  api_call_23                        
     0000E442  api_call_24                        
     0000E445  dev_printer_busy                   
     0000E448  api_call_26                        
     0000E44B  api_call_27                        
     0000E44E  api_call_28                        
     0000E451  api_call_29                        
     0000E454  api_call_30                        
     0000E457  api_call_31                        
     0000E45A  api_call_32                        
     0000E45D  api_call_33                        
     0000E460  terminal_row1                      
     0000E461  terminal_row2                      
     0000E462  column_count                       
     0000E463  row_start                          
     0000E464  terminal_row3                      
     0000E465  terminal_row4                      
     0000E466  buffer_put_char                    
ASxxxx Linker V03.00 + NoICE + sdld,  page 7.
Hexadecimal  [32-Bits]

Area                                    Addr        Size        Decimal Bytes (Attributes)
--------------------------------        ----        ----        ------- ----- ------------
_CODE                               0000E000    00002000 =        8192. bytes (REL,CON)

      Value  Global                              Global Defined In Module
      -----  --------------------------------   ------------------------
     0000E467  attrib_color                       
     0000E468  cfg10_settings                     
     0000E469  cfg20_settings                     
     0000E46A  screen_driver_settings             
     0000E46D  cursor_row                         
     0000E46E  cursor_column                      
     0000E46F  led_status                         
     0000E470  cursor_start                       
     0000E471  kbd_debounce_cnt                   
     0000E472  kbd_matrix_buffer                  
     0000E47E  kbd_matrix_buffer2                 
     0000E48A  kbd_command_mode                   
     0000E48B  kbd_modifiers                      
     0000E48C  input_mode                         
     0000E48E  kbd_position                       
     0000E48F  kbd_ascii                          
     0000E490  cursor_abs                         
     0000E492  cursor_abs_color                   
     0000E494  column_offset_tmp                  
     0000E496  cursor_tmp                         
     0000E498  key_code                           
     0000E499  attrib_tmp                         
     0000E49C  param_word                         
     0000E49E  param_1                            
     0000E4A0  param_2                            
     0000E4A2  param_3                            
     0000E4A6  sprintf_buffer                     
     0000E4B6  printer_protocol_flag              
     0000E4B7  ret_pc                             
     0000E4B9  reg_bc                             
     0000E4BB  reg_de                             
     0000E4BD  reg_hl                             
     0000E4BF  reg_af                             
     0000E4C1  reg_i                              
     0000E4C2  reg_ix                             
     0000E4C4  reg_iy                             
     0000E4C6  save_stack                         
     0000E4CB  cursor_flag                        
     0000E4CC  cursor_row_column_rel              
     0000E4CE  char_tmp                           
     0000E4D0  os_patch                           
     0000E4D2  beep_delay                         
     0000E4D4  crt_wait_vsync                     
     0000E4D7  crt_is_vsync                       
     0000E4DA  crt_wait_flicker_free_save_A       
     0000E4DD  kbd_table_lookup                   
     0000E59D  kbd_buffer_clear_beep              
     0000E5A3  kbd_buffer_clear                   
     0000E5B1  kbd_matrix_read                    
     0000E5CA  _m1e                               
     0000E5D5  kbd_pressed2                       
ASxxxx Linker V03.00 + NoICE + sdld,  page 8.
Hexadecimal  [32-Bits]

Area                                    Addr        Size        Decimal Bytes (Attributes)
--------------------------------        ----        ----        ------- ----- ------------
_CODE                               0000E000    00002000 =        8192. bytes (REL,CON)

      Value  Global                              Global Defined In Module
      -----  --------------------------------   ------------------------
     0000E5E1  _err4                              
     0000E5E3  m_e5e3                             
     0000E5E7  m_e5e7                             
     0000E5FE  cmp_kbd_entry                      
     0000E609  scan_is_stable                     
     0000E641  decrement_kbd_debounce_cnt         
     0000E647  kbd_not_pressed                    
     0000E64B  clear_kbd_modifiers                
     0000E64F  kbd_no_key                         
     0000E656  scans_different                    
     0000E65F  set_kbd_debounce_cnt               
     0000E664  update_key_code                    
     0000E66A  kbd_exit                           
     0000E66E  kbd_fetch_from_io                  
     0000E672  kbd_scan_columns                   
     0000E67B  delay                              
     0000E682  m_e682                             
     0000E68C  kbd_buffer_check_colum             
     0000E696  m_e696                             
     0000E69D  m_e69d                             
     0000E6A0  m_e6a0                             
     0000E6A8  m_e6a8                             
     0000E6AE  m_e6ae                             
     0000E6C3  m_e6c3                             
     0000E6D4  kbd_handle_ctrl                    
     0000E6E2  handle_kbd_shift                   
     0000E6E7  set_kbd_modifiers                  
     0000E6EC  handle_kbd_shift_lock              
     0000E6F6  handle_kbd_command                 
     0000E6FF  handle_kbd_graph                   
     0000E70F  m_e70f                             
     0000E71A  modify_if_graphic_B                
     0000E729  m_e729                             
     0000E72C  m_e72c                             
     0000E739  m_e739                             
     0000E74F  opcode_compare                     
     0000E758  unreferenced_09                    
     0000E762  kbd_inch                           
     0000E765  m_e765                             
     0000E77A  m_e77a                             
     0000E794  m_e794                             
     0000E799  m_e799                             
     0000E7A2  m_e7a2                             
     0000E7A8  m_e7a8                             
     0000E7AC  put_char_crt                       
     0000E7CC  m_e7cc                             
     0000E7D8  m_e7d8                             
     0000E7DC  m_e7dc                             
     0000E7DF  m_e7df                             
     0000E7E7  m_e7e7                             
     0000E7EF  m_e7ef                             
ASxxxx Linker V03.00 + NoICE + sdld,  page 9.
Hexadecimal  [32-Bits]

Area                                    Addr        Size        Decimal Bytes (Attributes)
--------------------------------        ----        ----        ------- ----- ------------
_CODE                               0000E000    00002000 =        8192. bytes (REL,CON)

      Value  Global                              Global Defined In Module
      -----  --------------------------------   ------------------------
     0000E808  m_e808                             
     0000E80D  m_e80d                             
     0000E817  m_e817                             
     0000E81E  m_e81e                             
     0000E823  m_e823                             
     0000E828  map_char_to_graphic                
     0000E835  m_e835                             
     0000E83C  m_e83c                             
     0000E83F  m_e83f                             
     0000E84C  m_e84c                             
     0000E855  special_characters                 
     0000E858  asc_07                             
     0000E85B  asc_08                             
     0000E85E  asc_0a                             
     0000E861  asc_0c                             
     0000E864  asc_0d                             
     0000E867  asc_12                             
     0000E86A  asc_1c                             
     0000E86D  asc_1d                             
     0000E870  asc_1e                             
     0000E873  asc_1f                             
     0000E876  asc_7f                             
     0000E879  asc_99                             
     0000E87C  asc_9a                             
     0000E886  chr_line_feed                      
     0000E891  chr_03                             
     0000E894  chr_12                             
     0000E897  chr_7f                             
     0000E89A  chr_inverse_off                    
     0000E8A0  chr_inverse_on                     
     0000E8A6  kbd_toggle_gled                    
     0000E8AB  kbd_update_gled                    
     0000E8B7  m_e8b7                             
     0000E8BB  m_e8bb                             
     0000E8BF  m_e8bf                             
     0000E8D2  m_e8d2                             
     0000E8D6  m_e8d6                             
     0000E8E5  m_e8e5                             
     0000E8E8  m_e8e8                             
     0000E8EC  crt_write_char_with_color          
     0000E8FA  cursor_move_right                  
     0000E909  chr_carrige_return                 
     0000E922  m_e922                             
     0000E925  m_e925                             
     0000E92E  m_e92e                             
     0000E931  crt_set_cursor                     
     0000E947  chr_carrige_returnX                
     0000E94A  m_e94a                             
     0000E95D  m_e95d                             
     0000E963  m_e963                             
     0000E97D  crt_set_cursor_at_row_start        
ASxxxx Linker V03.00 + NoICE + sdld,  page 10.
Hexadecimal  [32-Bits]

Area                                    Addr        Size        Decimal Bytes (Attributes)
--------------------------------        ----        ----        ------- ----- ------------
_CODE                               0000E000    00002000 =        8192. bytes (REL,CON)

      Value  Global                              Global Defined In Module
      -----  --------------------------------   ------------------------
     0000E98A  _m32                               
     0000E99E  m_e99e                             
     0000E9AA  m_e9aa                             
     0000E9BB  set_cursor_abs                     
     0000E9D0  get_cursor_abs                     
     0000E9E2  calc_column_offset                 
     0000E9E7  add_column_size                    
     0000E9EC  chr_clear_screen                   
     0000E9F1  clear_screen_width_color           
     0000EA03  set_cursor_home                    
     0000EA0D  wait_vsync                         
     0000EA13  display_inhibit                    
     0000EA1A  is_vsync                           
     0000EA20  display_enable                     
     0000EA25  display_status_set                 
     0000EA2B  wait_flicker_free_save_A           
     0000EA2C  wait_flicker_free                  
     0000EA31  _mb                                
     0000EA37  chr_cursor_left                    
     0000EA46  chr_cursor_up                      
     0000EA52  chr_cursor_right                   
     0000EA61  chr_cursor_down                    
     0000EA6B  cursor_row_adjusted                
     0000EA6E  _set_cursor                        
     0000EA71  cursor_store_column                
     0000EA76  chr_backspace                      
     0000EA80  chr_beep                           
     0000EA91  _buz_off                           
     0000EA93  _mc                                
     0000EA98  buzzer_on                          
     0000EAA0  buzzer_off                         
     0000EAA6  brk_exit                           
     0000EAB7  lpt_busy                           
     0000EAC4  lpt_write_byte                     
     0000EAD8  _m26                               
     0000EADF  _m25                               
     0000EAE5  com_tx_ready                       
     0000EAEE  com_write_byte                     
     0000EAF4  _m27                               
     0000EAF8  com_read_byte                      
     0000EB01  _m31                               
     0000EB0A  _m30                               
     0000EB0F  _m2f                               
     0000EB12  com_rx_ready                       
     0000EB1F  unreferenced_06                    
     0000EB2E  init_serial                        
     0000EB3B  set_cfg10                          
     0000EB41  unreferenced_07                    
     0000EB46  _ma                                
     0000EB4C  unreferenced_08                    
     0000EB53  map_esc_list                       
ASxxxx Linker V03.00 + NoICE + sdld,  page 11.
Hexadecimal  [32-Bits]

Area                                    Addr        Size        Decimal Bytes (Attributes)
--------------------------------        ----        ----        ------- ----- ------------
_CODE                               0000E000    00002000 =        8192. bytes (REL,CON)

      Value  Global                              Global Defined In Module
      -----  --------------------------------   ------------------------
     0000EB56  map_ch_0c                          
     0000EB59  map_ch_10                          
     0000EB5C  map_ch_11                          
     0000EB5F  map_ch_12                          
     0000EB62  map_ch_13                          
     0000EB65  map_ch_16                          
     0000EB68  map_ch_17                          
     0000EB6B  map_ch_18                          
     0000EB6E  map_ch_19                          
     0000EB71  map_ch_1a                          
     0000EB74  map_ch_1c                          
     0000EB77  map_ch_1d                          
     0000EB7A  map_ch_31                          
     0000EB7D  map_ch_41                          
     0000EB80  map_ch_42                          
     0000EB83  map_ch_43                          
     0000EB86  map_ch_44                          
     0000EB89  map_ch_45                          
     0000EB8C  map_ch_46                          
     0000EB8F  map_ch_47                          
     0000EB92  map_ch_48                          
     0000EB95  map_ch_49                          
     0000EB98  map_ch_4a                          
     0000EB9B  map_ch_4b                          
     0000EB9E  map_ch_53                          
     0000EBA1  map_ch_54                          
     0000EBA4  map_ch_55                          
     0000EBA7  map_ch_56                          
     0000EBAA  map_ch_59                          
     0000EBAD  map_ch_end                         
     0000EBAE  map_more_codes                     
     0000EBB1  map_ESC_10                         
     0000EBB4  map_ESC_16                         
     0000EBB7  map_esc_1d                         
     0000EBBA  map_esc_47                         
     0000EBBD  map_esc_49                         
     0000EBC0  map_esc_53                         
     0000EBC3  map_esc_54                         
     0000EBC6  map_esc_55                         
     0000EBC9  map_esc_56                         
     0000EBCC  map_esc_59                         
     0000EBCF  map_esc_96                         
     0000EBD2  map_esc_9d                         
     0000EBD5  map_esc_b1                         
     0000EBD8  map_esc_b2                         
     0000EBDB  map_esc_d4                         
     0000EBDE  map_esc_d5                         
     0000EBE1  map_esc_d9                         
     0000EBE4  map_more_codes_end                 
     0000EBE5  _m2e                               
     0000EBFD  _m6                                
ASxxxx Linker V03.00 + NoICE + sdld,  page 12.
Hexadecimal  [32-Bits]

Area                                    Addr        Size        Decimal Bytes (Attributes)
--------------------------------        ----        ----        ------- ----- ------------
_CODE                               0000E000    00002000 =        8192. bytes (REL,CON)

      Value  Global                              Global Defined In Module
      -----  --------------------------------   ------------------------
     0000EC05  _m2d                               
     0000EC12  input_mode_clear                   
     0000EC15  function_0c                        
     0000EC16  _m2                                
     0000EC1A  graphic_mode_on                    
     0000EC21  map_C_to_PTR                       
     0000EC2C  key_found                          
     0000EC36  esc_set_color_attribute            
     0000EC3F  function_more_0c15                 
     0000EC50  _m1                                
     0000EC6C  esc_set_screen_attribute           
     0000EC85  _fetch_color_attribute             
     0000EC8F  set_cursor_on                      
     0000EC93  set_cursor_off                     
     0000EC95  _crt_set_cursor_register           
     0000ECA8  get_cursor_pos                     
     0000ECC5  _count_cursor_column               
     0000ECCD  _column_is_in_C                    
     0000ECD3  alternate_keyboard_table           
     0000ECD8  _exchange_table_entry              
     0000ECE3  ESC_0C_Initialize_Screen_driver    
     0000ECEF  function_more_0c13                 
     0000ECF3  _m20                               
     0000ED09  _m3                                
     0000ED10  function_more_0c14                 
     0000ED1D  esc_position_cursor                
     0000ED2A  _set_cursor_tmp                    
     0000ED30  _invalid_cursor_parameter          
     0000ED33  _set_cursor_max                    
     0000ED37  esc_16_set_cursor                  
     0000ED44  function_more_0c17                 
     0000ED4B  _set_cursor_parameter              
     0000ED54  _m4                                
     0000ED60  _err1                              
     0000ED63  _m5                                
     0000ED67  function_more_0c11                 
     0000ED6C  write_character                    
     0000ED75  _cursor_pos_increment              
     0000ED8A  read_character                     
     0000ED9B  erase_rest_of_line                 
     0000ED9D  _erase_screen_lines                
     0000EDA0  _erase_rest_of_line                
     0000EDA5  fill_bws_rows                      
     0000EDBC  fill_cnt                           
     0000EDCB  _fill_next_line                    
     0000EDD1  erase_line                         
     0000EDDF  erase_rest_of_screen               
     0000EDE9  esc_47_delecte_character_to_colu   
     0000EDED  _move_next_character               
     0000EDF8  _m8                                
     0000EDFE  esc_49_insert_character            
ASxxxx Linker V03.00 + NoICE + sdld,  page 13.
Hexadecimal  [32-Bits]

Area                                    Addr        Size        Decimal Bytes (Attributes)
--------------------------------        ----        ----        ------- ----- ------------
_CODE                               0000E000    00002000 =        8192. bytes (REL,CON)

      Value  Global                              Global Defined In Module
      -----  --------------------------------   ------------------------
     0000EE06  _insert_next_character             
     0000EE13  _m7                                
     0000EE2A  _err2                              
     0000EE2C  ESC_10_output_blanks               
     0000EE34  _output_chars                      
     0000EE3E  _m9                                
     0000EE47  _m22                               
     0000EE4A  _m23                               
     0000EE4E  _m21                               
     0000EE5D  _m24                               
     0000EE61  esc_1d_outputs_characters          
     0000EE6A  function_more_0c12                 
     0000EE77  esc_53_select_screen_width         
     0000EE7A  switch_crt_mode                    
     0000EE8A  _switch_crt40                      
     0000EE94  _switch_crt80                      
     0000EE9A  set_video_mode                     
     0000EEB9  crt_write_reg                      
     0000EECD  _handle_1b53xx_end                 
     0000EED3  crt_table40                        
     0000EEE5  crt_table80                        
     0000EF20  bicom_clr_graphics                 
     0000EF24  bicom_set_pixel                    
     0000EF28  bicom_get_pixel                    
     0000EF2C  bicom_draw_line                    
     0000EF30  bicom_prt_line                     
     0000EF34  bicom_undoc1                       
     0000EF40  bicom_glp1_prt_gfx                 
     0000EF50  bicom_glp2_prt_2nd_line            
     0000EF60  bicom_glp3_prt_crlf                
     0000EF70  bicom_glp4_prt_ld                  
     0000EF80  bicom_glp5_prt_ld                  
     0000EF90  bicom_scheduler                    
     0000EF96  monitor_inhibit                    
     0000EF9C  m_ef9c                             
     0000EFA3  rom_enable                         
     0000EFC7  wait_fdd_ready                     
     0000EFCE  ENTRY                              
     0000EFF0  boot                               
     0000EFFE  boot_rom_ends                      
     0000F000  boot_rom_extensions                
     0000F010  m_f010                             
     0000F020  patch_printer_ptr                  
     0000F02C  init_kbd_table                     
     0000F05E  get_kbd_table_address              
     0000F064  copy_kbd_table                     
     0000F06D  init_crt_param                     
     0000F081  init_pic                           
     0000F08E  fdc_cmd_init                       
     0000F093  fdc_cmd_read_boot                  
     0000F09C  fdc_write_byte_ix                  
ASxxxx Linker V03.00 + NoICE + sdld,  page 14.
Hexadecimal  [32-Bits]

Area                                    Addr        Size        Decimal Bytes (Attributes)
--------------------------------        ----        ----        ------- ----- ------------
_CODE                               0000E000    00002000 =        8192. bytes (REL,CON)

      Value  Global                              Global Defined In Module
      -----  --------------------------------   ------------------------
     0000F0A1  fdc_write_byte                     
     0000F0A2  _m28                               
     0000F0AC  fdc_read_byte                      
     0000F0B5  fdc_read_boot_sector               
     0000F0DF  fdw_write_next_byte                
     0000F0E8  _m29                               
     0000F0FD  _m2a                               
     0000F10F  _m2b                               
     0000F118  kbd_adjust_keyboard_table          
     0000F133  _m2c                               
     0000F13D  set_german_ascii_range             
     0000F145  _patch_localization_us             
     0000F148  _patch_localization_fr             
     0000F14B  _patch_localization_uk             
     0000F14E  _patch_localization_it             
     0000F151  _patch_localization_es             
     0000F154  _patch_localization_07             
     0000F157  m_f157                             
     0000F173  bicom_int_get_pixel                
     0000F17D  bicom_int_set_pixel                
     0000F18B  m_f18b                             
     0000F19A  m_f19a                             
     0000F19E  m_f19e                             
     0000F19F  m_f19f                             
     0000F1A4  m_f1a4                             
     0000F1B0  m_f1b0                             
     0000F1B4  m_f1b4                             
     0000F1B9  m_f1b9                             
     0000F1C9  m_f1c9                             
     0000F1CC  m_f1cc                             
     0000F1E1  m_f1e1                             
     0000F1EF  m_f1ef                             
     0000F1F3  m_f1f3                             
     0000F220  bicom_int_clr                      
     0000F233  m_f233                             
     0000F235  m_f235                             
     0000F24D  m_f24d                             
     0000F253  m_f253                             
     0000F25E  bicom_int_draw_line                
     0000F2A1  m_f2a1                             
     0000F2AA  m_f2aa                             
     0000F2C3  m_f2c3                             
     0000F2DD  m_f2dd                             
     0000F2DE  m_f2de                             
     0000F2E6  m_f2e6                             
     0000F2F2  m_f2f2                             
     0000F30C  m_f30c                             
     0000F316  m_f316                             
     0000F323  m_f323                             
     0000F337  m_f337                             
     0000F343  m_f343                             
ASxxxx Linker V03.00 + NoICE + sdld,  page 15.
Hexadecimal  [32-Bits]

Area                                    Addr        Size        Decimal Bytes (Attributes)
--------------------------------        ----        ----        ------- ----- ------------
_CODE                               0000E000    00002000 =        8192. bytes (REL,CON)

      Value  Global                              Global Defined In Module
      -----  --------------------------------   ------------------------
     0000F365  m_f365                             
     0000F37A  m_f37a                             
     0000F37F  m_f37f                             
     0000F386  m_f386                             
     0000F393  m_f393                             
     0000F394  m_f394                             
     0000F39B  m_f39b                             
     0000F3A0  m_f3a0                             
     0000F3AE  m_f3ae                             
     0000F3B9  m_f3b9                             
     0000F3E3  m_f3e3                             
     0000F3EB  bicom_int_prt_line                 
     0000F3F2  m_f3f2                             
     0000F407  m_f407                             
     0000F40A  m_f40a                             
     0000F423  m_f423                             
     0000F429  m_f429                             
     0000F434  m_f434                             
     0000F445  m_f445                             
     0000F457  m_f457                             
     0000F45C  m_f45c                             
     0000F470  m_f470                             
     0000F489  m_f489                             
     0000F48F  m_f48f                             
     0000F490  m_f490                             
     0000F49F  m_f49f                             
     0000F4B7  m_f4b7                             
     0000F4C0  m_f4c0                             
     0000F4CF  m_f4cf                             
     0000F4D1  m_f4d1                             
     0000F4D2  m_f4d2                             
     0000F4E0  m_f4e0                             
     0000F4F9  m_f4f9                             
     0000F4FE  m_f4fe                             
     0000F501  m_f501                             
     0000F505  m_f505                             
     0000F50C  m_f50c                             
     0000F514  m_f514                             
     0000F51D  m_f51d                             
     0000F523  m_f523                             
     0000F537  m_f537                             
     0000F800  kbd_table_int                      
     0000F860  kbd_table_int_sh                   
     0000F8C0  kbd_table_de                       
     0000F980  kbd_table_us                       
     0000FA40  kbd_table_fr                       
     0000FB00  kbd_table_uk                       
     0000FBC0  kbd_table_it                       
     0000FC80  kbd_table_es                       
     0000FD40  crt_table_ntsc                     
     0000FD64  kbc_cpm_control_keys               
ASxxxx Linker V03.00 + NoICE + sdld,  page 16.
Hexadecimal  [32-Bits]

Area                                    Addr        Size        Decimal Bytes (Attributes)
--------------------------------        ----        ----        ------- ----- ------------
_CODE                               0000E000    00002000 =        8192. bytes (REL,CON)

      Value  Global                              Global Defined In Module
      -----  --------------------------------   ------------------------
     0000FD7C  kbc_cpm_control_keys_shift         
     0000FD94  cpm_special_character_mods         
     0000FD9C  patch_table_1                      
     0000FDA6  patch_table_2                      
     0000FDB0  patch_rom_code                     
     0000FFF0  version                            

ASxxxx Linker V03.00 + NoICE + sdld,  page 17.

Files Linked                              [ module(s) ]

obj/rom.rel                               [  ]

ASxxxx Linker V03.00 + NoICE + sdld,  page 18.

User Base Address Definitions

_CODE=0xe000

